target datalayout = "e-m:e-p270:32:32-p271:32:32-p272:64:64-i64:64-i128:128-f80:128-n8:16:32:64-S128"
target triple = "x86_64-pc-linux-gnu"

@cdb_control_fields = hidden constant [6 x ptr] [ptr @hf_scsi_control_vendor_specific, ptr @hf_scsi_control_reserved, ptr @hf_scsi_control_naca, ptr @hf_scsi_control_obs1, ptr @hf_scsi_control_obs2, ptr null], align 16
@hf_scsi_control = hidden global i32 0, align 4
@ett_scsi_control = hidden global i32 0, align 4
@hf_scsi_paramlen16 = internal global i32 0, align 4
@hf_scsi_senddiag_st_code = internal global i32 0, align 4
@hf_scsi_senddiag_pf = internal global i32 0, align 4
@hf_scsi_senddiag_st = internal global i32 0, align 4
@hf_scsi_senddiag_devoff = internal global i32 0, align 4
@hf_scsi_senddiag_unitoff = internal global i32 0, align 4

; Function Attrs: nounwind uwtable
define hidden void @dissect_spc_senddiagnostic(ptr noundef %0, ptr noundef %1, ptr noundef %2, i32 noundef %3, i32 noundef %4, i32 noundef %5, i32 noundef %6, ptr noundef %7) #0 {
  %9 = alloca ptr, align 8
  %10 = alloca ptr, align 8
  %11 = alloca ptr, align 8
  %12 = alloca i32, align 4
  %13 = alloca i32, align 4
  %14 = alloca i32, align 4
  %15 = alloca i32, align 4
  %16 = alloca ptr, align 8
  store ptr %0, ptr %9, align 8
  store ptr %1, ptr %10, align 8
  store ptr %2, ptr %11, align 8
  store i32 %3, ptr %12, align 4
  store i32 %4, ptr %13, align 4
  store i32 %5, ptr %14, align 4
  store i32 %6, ptr %15, align 4
  store ptr %7, ptr %16, align 8
  %17 = load ptr, ptr %11, align 8
  %18 = icmp ne ptr %17, null
  br i1 %18, label %23, label %19

19:                                               ; preds = %8
  %20 = load i32, ptr %13, align 4
  %21 = icmp ne i32 %20, 0
  br i1 %21, label %23, label %22

22:                                               ; preds = %19
  br label %62

23:                                               ; preds = %19, %8
  %24 = load ptr, ptr %11, align 8
  %25 = load i32, ptr @hf_scsi_senddiag_st_code, align 4
  %26 = load ptr, ptr %9, align 8
  %27 = load i32, ptr %12, align 4
  %28 = call ptr @proto_tree_add_item(ptr noundef %24, i32 noundef %25, ptr noundef %26, i32 noundef %27, i32 noundef 1, i32 noundef 0)
  %29 = load ptr, ptr %11, align 8
  %30 = load i32, ptr @hf_scsi_senddiag_pf, align 4
  %31 = load ptr, ptr %9, align 8
  %32 = load i32, ptr %12, align 4
  %33 = call ptr @proto_tree_add_item(ptr noundef %29, i32 noundef %30, ptr noundef %31, i32 noundef %32, i32 noundef 1, i32 noundef 0)
  %34 = load ptr, ptr %11, align 8
  %35 = load i32, ptr @hf_scsi_senddiag_st, align 4
  %36 = load ptr, ptr %9, align 8
  %37 = load i32, ptr %12, align 4
  %38 = call ptr @proto_tree_add_item(ptr noundef %34, i32 noundef %35, ptr noundef %36, i32 noundef %37, i32 noundef 1, i32 noundef 0)
  %39 = load ptr, ptr %11, align 8
  %40 = load i32, ptr @hf_scsi_senddiag_devoff, align 4
  %41 = load ptr, ptr %9, align 8
  %42 = load i32, ptr %12, align 4
  %43 = call ptr @proto_tree_add_item(ptr noundef %39, i32 noundef %40, ptr noundef %41, i32 noundef %42, i32 noundef 1, i32 noundef 0)
  %44 = load ptr, ptr %11, align 8
  %45 = load i32, ptr @hf_scsi_senddiag_unitoff, align 4
  %46 = load ptr, ptr %9, align 8
  %47 = load i32, ptr %12, align 4
  %48 = call ptr @proto_tree_add_item(ptr noundef %44, i32 noundef %45, ptr noundef %46, i32 noundef %47, i32 noundef 1, i32 noundef 0)
  %49 = load ptr, ptr %11, align 8
  %50 = load i32, ptr @hf_scsi_paramlen16, align 4
  %51 = load ptr, ptr %9, align 8
  %52 = load i32, ptr %12, align 4
  %53 = add i32 %52, 2
  %54 = call ptr @proto_tree_add_item(ptr noundef %49, i32 noundef %50, ptr noundef %51, i32 noundef %53, i32 noundef 2, i32 noundef 0)
  %55 = load ptr, ptr %11, align 8
  %56 = load ptr, ptr %9, align 8
  %57 = load i32, ptr %12, align 4
  %58 = add i32 %57, 4
  %59 = load i32, ptr @hf_scsi_control, align 4
  %60 = load i32, ptr @ett_scsi_control, align 4
  %61 = call ptr @proto_tree_add_bitmask(ptr noundef %55, ptr noundef %56, i32 noundef %58, i32 noundef %59, i32 noundef %60, ptr noundef @cdb_control_fields, i32 noundef 0)
  br label %62

62:                                               ; preds = %23, %22
  ret void
}