; Function Attrs: nounwind uwtable
define hidden void @dissect_spc_senddiagnostic(ptr noundef %0, ptr readnone captures(none) %1, ptr noundef %2, i32 noundef %3, i32 noundef %4, i32 %5, i32 %6, ptr readnone captures(none) %7) #0 {
  %9 = icmp ne ptr %2, null
  %10 = icmp ne i32 %4, 0
  %or.cond = or i1 %9, %10
  br i1 %or.cond, label %11, label %29

11:                                               ; preds = %8
  %12 = load i32, ptr @hf_scsi_senddiag_st_code, align 4
  %13 = tail call ptr @proto_tree_add_item(ptr noundef %2, i32 noundef %12, ptr noundef %0, i32 noundef %3, i32 noundef 1, i32 noundef 0) #10
  %14 = load i32, ptr @hf_scsi_senddiag_pf, align 4
  %15 = tail call ptr @proto_tree_add_item(ptr noundef %2, i32 noundef %14, ptr noundef %0, i32 noundef %3, i32 noundef 1, i32 noundef 0) #10
  %16 = load i32, ptr @hf_scsi_senddiag_st, align 4
  %17 = tail call ptr @proto_tree_add_item(ptr noundef %2, i32 noundef %16, ptr noundef %0, i32 noundef %3, i32 noundef 1, i32 noundef 0) #10
  %18 = load i32, ptr @hf_scsi_senddiag_devoff, align 4
  %19 = tail call ptr @proto_tree_add_item(ptr noundef %2, i32 noundef %18, ptr noundef %0, i32 noundef %3, i32 noundef 1, i32 noundef 0) #10
  %20 = load i32, ptr @hf_scsi_senddiag_unitoff, align 4
  %21 = tail call ptr @proto_tree_add_item(ptr noundef %2, i32 noundef %20, ptr noundef %0, i32 noundef %3, i32 noundef 1, i32 noundef 0) #10
  %22 = load i32, ptr @hf_scsi_paramlen16, align 4
  %23 = add i32 %3, 2
  %24 = tail call ptr @proto_tree_add_item(ptr noundef %2, i32 noundef %22, ptr noundef %0, i32 noundef %23, i32 noundef 2, i32 noundef 0) #10
  %25 = add i32 %3, 4
  %26 = load i32, ptr @hf_scsi_control, align 4
  %27 = load i32, ptr @ett_scsi_control, align 4
  %28 = tail call ptr @proto_tree_add_bitmask(ptr noundef %2, ptr noundef %0, i32 noundef %25, i32 noundef %26, i32 noundef %27, ptr noundef nonnull @cdb_control_fields, i32 noundef 0) #10
  br label %29

29:                                               ; preds = %8, %11
  ret void
}